; Function Attrs: mustprogress uwtable
define void @_ZN3g2o15SparseOptimizer5clearEv(ptr noundef nonnull align 8 dereferenceable(409) %0) unnamed_addr #3 align 2 personality ptr @__gxx_personality_v0 {
  %2 = getelementptr inbounds nuw i8, ptr %0, i64 304
  %3 = load ptr, ptr %2, align 8
  %4 = getelementptr inbounds i8, ptr %0, i64 312
  %5 = load ptr, ptr %4, align 8
  %.not.i.i = icmp eq ptr %5, %3
  br i1 %.not.i.i, label %_ZNSt6vectorIPN3g2o16OptimizableGraph6VertexESaIS3_EE5clearEv.exit, label %6

6:                                                ; preds = %1
  store ptr %3, ptr %4, align 8
  br label %_ZNSt6vectorIPN3g2o16OptimizableGraph6VertexESaIS3_EE5clearEv.exit

_ZNSt6vectorIPN3g2o16OptimizableGraph6VertexESaIS3_EE5clearEv.exit: ; preds = %1, %6
  %7 = getelementptr inbounds nuw i8, ptr %0, i64 328
  %8 = load ptr, ptr %7, align 8
  %9 = getelementptr inbounds i8, ptr %0, i64 336
  %10 = load ptr, ptr %9, align 8
  %.not.i.i1 = icmp eq ptr %10, %8
  br i1 %.not.i.i1, label %_ZNSt6vectorIPN3g2o16OptimizableGraph6VertexESaIS3_EE5clearEv.exit2, label %11

11:                                               ; preds = %_ZNSt6vectorIPN3g2o16OptimizableGraph6VertexESaIS3_EE5clearEv.exit
  store ptr %8, ptr %9, align 8
  br label %_ZNSt6vectorIPN3g2o16OptimizableGraph6VertexESaIS3_EE5clearEv.exit2

_ZNSt6vectorIPN3g2o16OptimizableGraph6VertexESaIS3_EE5clearEv.exit2: ; preds = %_ZNSt6vectorIPN3g2o16OptimizableGraph6VertexESaIS3_EE5clearEv.exit, %11
  %12 = getelementptr inbounds nuw i8, ptr %0, i64 352
  %13 = load ptr, ptr %12, align 8
  %14 = getelementptr inbounds i8, ptr %0, i64 360
  %15 = load ptr, ptr %14, align 8
  %.not.i.i3 = icmp eq ptr %15, %13
  br i1 %.not.i.i3, label %_ZNSt6vectorIPN3g2o16OptimizableGraph4EdgeESaIS3_EE5clearEv.exit, label %16

16:                                               ; preds = %_ZNSt6vectorIPN3g2o16OptimizableGraph6VertexESaIS3_EE5clearEv.exit2
  store ptr %13, ptr %14, align 8
  br label %_ZNSt6vectorIPN3g2o16OptimizableGraph4EdgeESaIS3_EE5clearEv.exit

_ZNSt6vectorIPN3g2o16OptimizableGraph4EdgeESaIS3_EE5clearEv.exit: ; preds = %_ZNSt6vectorIPN3g2o16OptimizableGraph6VertexESaIS3_EE5clearEv.exit2, %16
  tail call void @_ZN3g2o10HyperGraph5clearEv(ptr noundef nonnull align 8 dereferenceable(112) %0)
  ret void
}